(lp0
I34816
aI2267139
aI3336199
aI681993
aI2367501
aI3104784
aI538641
aI2981907
aI21
aI251926
aI4284441
aI5230618
aI2435101
aI6174
aI2410528
aI180261
aI600102
aI417834
aI1732651
aI1014109
aI571443
aI3031092
aI569397
aI175821
aI1576969
aI3076152
aI3846201
aI348219
aI5050429
aI63
aI75841
aI5339203
aI1800261
aI782406
aI661579
aI3719244
aI4319586
aI411726
aI2607183
aI251984
aI4278801
aI409687
aI4768173
aI534621
aI5210206
aI2947167
aI712800
aI3602529
aI747621
aI2109543
aI4753512
aI344169
aI942186
aI2140269
aI4274289
aI749682
aI5433363
aI4829301
aI4827255
aI4780152
aI211065
aI852091
aI4321404
aI166017
aI1980547
aI1704069
aI534663
aI1607817
aI430218
aI5369997
aI764952
aI2203551
aI813204
aI2050198
aI4104900
aI4862106
aI2093211
aI823452
aI5193072
aI2905821
aI51363
aI858276
aI2541861
aI321702
aI3629223
aI4884381
aI90282
aI848043
aI5314734
aI3014685
aI4734801
aI940212
aI4268214
aI5390523
aI5394621
aI2351295
aI620235
aI3715268
aI2701509
aI73926
aI456903
aI4780232
aI94206
aI3952843
aI2005196
aI1069261
aI5513422
aI1972431
aI43218
aI5010633
aI3422427
aI4813020
aI4285818
aI866527
aI4880610
aI2017508
aI20518
aI5394663
aI4901100
aI1362157
aI1785213
aI2010105
aI4133106
aI228051
aI932085
aI833782
aI2150647
aI631032
aI4962156
aI2195708
aI4217085
aI5126398
aI248104
aI4813056
aI708865
aI624903
aI4919562
aI4557067
aI4690188
aI4020610
aI250126
aI4622445
aI2653912
aI5458194
aI2910483
aI5384469
aI5083416
aI2459012
aI49435
aI2599196
aI2013469
aI2181406
aI3162501
aI821537
aI618786
aI291
aI779281
aI3316005
aI85041
aI5021992
aI1026349
aI289071
aI4493617
aI4809010
aI3842100
aI84283
aI641340
aI340285
aI1524031
aI4522306
aI22851
aI205126
aI629064
aI539967
aI4286797
aI4435
aI250196
aI622935
aI778669
aI5456218
aI4680027
aI620892
aI8541
aI4661598
aI899424
aI176481
aI749922
aI3146083
aI5428966
aI625041
aI5396841
aI45421
aI502126
aI5528637
aI5030259
aI5267829
aI3193207
aI842104
aI5300602
aI4673916
aI5364093
aI4082047
aI2419072
aI940417
aI78210
aI2320369
aI4681638
aI3154309
aI1769913
aI2048163
aI653043
aI4006287
aI256401
aI418194
aI2149443
aI2038165
aI51606
aI5271732
aI2668957
aI4235679
aI4659618
aI201123
aI768420
aI45126
aI3928014
aI2185641
aI5399062
aI3652011
aI2087341
aI3041712
aI2052531
aI2179508
aI285109
aI502198
aI3881400
aI3140025
aI2957841
aI4314985
aI1518021
aI119221
aI3516874
aI2120139
aI674253
aI4468813
aI4452816
aI5165521
aI4839502
aI4084182
aI1288663
aI2781657
aI4362714
aI4248027
aI2015708
aI582109
aI1962405
aI371682
aI1688037
aI2591206
aI659943
aI4157928
aI2560489
aI612846
aI2618109
aI98802
aI5032437
aI3926518
aI500218
aI1399291
aI4317696
aI442881
aI924075
aI5396997
aI2604681
aI2103819
aI410124
aI966370
aI5210638
aI1946127
aI3572241
aI4631058
aI74259
aI4776469
aI651798
aI4448214
aI4088347
aI2869791
aI498208
aI1786401
aI802476
aI5020196
aI5020198
aI4278823
aI5524009
aI371244
aI609714
aI4756014
aI440413
aI5380657
aI5063218
aI2588083
aI4001670
aI3106458
aI2001465
aI5012026
aI5118523
aI4035132
aI4192830
aI600639
aI567873
aI21058
aI2015811
aI966753
aI653902
aI610896
aI571986
aI2858083
aI5266005
aI176569
aI5251674
aI2932495
aI94813
aI302181
aI601983
aI563814
aI895761
aI3478120
aI68202
aI25196
aI2919339
aI2388591
aI5470832
aI2466417
aI3082003
aI821880
aI2523769
aI4018812
aI82026
aI490110
aI690816
aI5143170
aI3202155
aI4210344
aI2998917
aI2042503
aI3093129
aI410252
aI4012686
aI4420239
aI2501264
aI4084369
aI3007122
aI2167443
aI4031124
aI842389
aI3820183
aI2769561
aI608922
aI5323419
aI215708
aI4076190
aI275103
aI2650309
aI1924891
aI625316
aI6822
aI404136
aI2603689
aI5032618
aI4081950
aI3265198
aI2964147
aI4025012
aI584379
aI1014901
aI4827841
aI3603140
aI920262
aI4319946
aI959607
aI1921741
aI5274318
aI53967
aI1802961
aI410322
aI2026195
aI5016276
aI29817
aI410328
aI674521
aI3941082
aI2812635
aI412380
aI2427615
aI4834017
aI5341923
aI434916
aI451302
aI4680423
aI1796841
aI895722
aI152301
aI1782513
aI3719922
aI4500212
aI880567
aI4317942
aI256761
aI5020412
aI2507517
aI3689215
aI2817
aI964395
aI2518
aI5518086
aI1520391
aI3107592
aI428814
aI4829163
aI4623120
aI5202705
aI2406531
aI8982
aI4815639
aI504601
aI504603
aI3898140
aI2239261
aI602910
aI590623
aI3689251
aI3654439
aI4408104
aI4589703
aI5104428
aI3298093
aI1796913
aI4410162
aI140083
aI4041525
aI20617
aI3201849
aI2120506
aI2947551
aI657205
aI957248
aI783169
aI2659138
aI2442051
aI5019226
aI4814305
aI3044169
aI5038923
aI2640717
aI3167054
aI1502031
aI693072
aI1700691
aI4750164
aI1396537
aI2612059
aI4201308
aI4428639
aI904032
aI2134881
aI162619
aI5152230
aI4168550
aI2012391
aI2591872
aI4187829
aI4135788
aI4591368
aI2460531
aI326516
aI3703669
aI2059126
aI871290
aI928638
aI732031
aI5104512
aI5126976
aI598914
aI1876867
aI483605
aI818053
aI4029318
aI525121
aI1780617
aI3692005
aI899982
aI5308401
aI781200
aI4013208
aI1796931
aI3849109
aI654231
aI2005912
aI3840921
aI3144603
aI308124
aI1600413
aI517023
aI3034017
aI2127003
aI4591206
aI933020
aI4238251
aI281517
aI384109
aI4125618
aI1514419
aI5004212
aI86965
aI5196726
aI646071
aI2059192
aI176931
aI461754
aI449467
aI5020605
aI848833
aI4170690
aI974667
aI52164
aI2032581
aI4873158
aI3158649
aI259018
aI199627
aI217508
aI201679
aI3912658
aI2103459
aI461780
aI259918
aI5002198
aI2356729
aI293001
aI4139172
aI599002
aI160731
aI4703196
aI3265018
aI756702
aI27615
aI840528
aI5403618
aI1878523
aI510948
aI628902
aI2461509
aI480231
aI4509180
aI992416
aI2962413
aI4233618
aI205916
aI615409
aI3851251
aI4617204
aI480249
aI3841020
aI640170
aI5491710
aI18261
aI4975104
aI2514213
aI5296113
aI1844229
aI3390471
aI4206114
aI224269
aI400399
aI1690641
aI2381085
aI896022
aI820248
aI5000218
aI652318
aI4508703
aI529443
aI3480615
aI3210280
aI736297
aI746539
aI388140
aI2608173
aI3216051
aI4766767
aI4310064
aI539697
aI3914802
aI3284019
aI4704102
aI568377
aI2106429
aI78120
aI259136
aI2647107
aI7236
aI87109
aI3560289
aI3824712
aI4416249
aI4018995
aI35683
aI2978901
aI4791384
aI3687514
aI2382351
aI5162076
aI2264157
aI4002912
aI4215906
aI2710627
aI5389413
aI650343
aI4416700
aI2317419
aI5276178
aI2284657
aI5311602
aI277621
aI3716214
aI191607
aI4482169
aI4154490
aI2649211
aI5306218
aI4932117
aI4117632
aI1021057
aI320643
aI5062138
aI212101
aI3656347
aI4820104
aI740421
aI261259
aI2526351
aI257168
aI2795301
aI3824791
aI4123800
aI2700441
aI2741403
aI857244
aI840861
aI1736901
aI5433867
aI5004225
aI783522
aI2108584
aI74922
aI5203143
aI4265132
aI310446
aI2813103
aI449712
aI3726249
aI3287923
aI89268
aI3521718
aI4246729
aI4306104
aI2999481
aI421052
aI2651326
aI4541301
aI2591936
aI2157088
aI5123266
aI5248195
aI736452
aI1912005
aI865479
aI4259016
aI1600713
aI4213962
aI4781943
aI281805
aI869965
aI535761
aI371922
aI4690432
aI5371092
aI3460309
aI2120175
aI181465
aI619740
aI410490
aI17631
aI5108964
aI2817255
aI601320
aI603369
aI384210
aI5461230
aI4102009
aI2591984
aI1144501
aI2993245
aI4256979
aI2868469
aI5260312
aI5367
aI742488
aI4183290
aI3904763
aI2063613
aI7422
aI5403861
aI2243841
aI830722
aI250412
aI4441356
aI4322178
aI192087
aI4642063
aI44305
aI245012
aI5102809
aI208413
aI1281307
aI4261149
aI742689
aI2854179
aI5154084
aI564102
aI2084139
aI4304172
aI2515167
aI2698461
aI431586
aI765234
aI2891061
aI3009417
aI5182776
aI2903263
aI812348
aI25918
aI2942271
aI2891073
aI4480325
aI441670
aI5444935
aI4216140
aI3582907
aI5121360
aI2149713
aI312658
aI574803
aI2010452
aI5012025
aI4482393
aI2012506
aI157021
aI1358053
aI5354043
aI182401
aI5504047
aI310635
aI3403116
aI5229
aI5014896
aI5462931
aI526312
aI869751
aI5199226
aI431485
aI4700635
aI1545109
aI2105996
aI4871556
aI20301
aI1941057
aI2418057
aI2180492
aI281997
aI734607
aI1523091
aI1822101
aI4853142
aI2410052
aI5082523
aI2202417
aI1256861
aI2103039
aI4148640
aI4228515
aI820644
aI54693
aI441768
aI1928617
aI2101701
aI3124652
aI4808110
aI179631
aI3194809
aI2500018
aI4210099
aI3993012
aI2024163
aI2110905
aI1724319
aI114109
aI3712446
aI4709823
aI400832
aI1869109
aI820674
aI3100836
aI725238
aI5041609
aI2743011
aI2104089
aI462285
aI1799631
aI1884067
aI1529301
aI3061206
aI1906137
aI496208
aI957312
aI5082363
aI67045
aI5514726
aI60903
aI681120
aI413172
aI865782
aI3122679
aI1803769
aI3921402
aI579067
aI4201038
aI3915261
aI4562431
aI976384
aI5254657
aI2815491
aI4910682
aI5637
aI4292865
aI4441608
aI806487
aI4812300
aI1961485
aI4763151
aI5221906
aI5406231
aI4109850
aI2991
aI857628
aI5257818
aI5060130
aI4038235
aI982566
aI5365287
aI4144680
aI1890567
aI4038192
aI5503923
aI4320655
aI2909751
aI3405373
aI2014785
aI2160195
aI3571268
aI5133921
aI4617800
aI5019210
aI2029131
aI4312652
aI3010125
aI5358861
aI5021264
aI5192632
aI2616915
aI573012
aI3520087
aI517722
aI4886107
aI4435621
aI210526
aI63072
aI400993
aI976482
aI4861539
aI4783023
aI2500198
aI3296871
aI2059912
aI56937
aI4894315
aI806511
aI71280
aI3624561
aI444018
aI2104947
aI5000824
aI4836985
aI59002
aI3280507
aI4034172
aI989802
aI432405
aI4034178
aI452203
aI194181
aI2170503
aI50824
aI4317804
aI5374269
aI65163
aI284301
aI502
aI4290192
aI167569
aI5136021
aI3120006
aI69271
aI2109861
aI700362
aI2614941
aI761502
aI1956103
aI186021
aI618150
aI2786983
aI2408104
aI5263018
aI4179627
aI4101804
aI1527469
aI4609710
aI736365
aI544435
aI243007
aI874782
aI2471607
aI2881210
aI3940639
aI2010058
aI4927167
aI4185792
aI4153026
aI2520771
aI632516
aI4839109
aI632518
aI3130657
aI2184904
aI5512140
aI5117643
aI4271832
aI747810
aI5203431
aI2006737
aI3772116
aI481230
aI4519638
aI2590423
aI5211864
aI4510332
aI2728911
aI2810673
aI2710821
aI46818
aI2209507
aI4259012
aI5177922
aI4361958
aI5340663
aI704232
aI5120636
aI5463261
aI3385069
aI5390062
aI2341501
aI3137265
aI326518
aI3522291
aI2715380
aI2678517
aI4410066
aI4695192
aI4318002
aI4327164
aI4781823
aI4573122
aI725632
aI689922
aI4232491
aI2871044
aI6102
aI1802061
aI67335
aI514323
aI3086253
aI4052610
aI1210669
aI4540176
aI462609
aI4531986
aI3247891
aI782100
aI825003
aI116503
aI906543
aI3381020
aI4404186
aI5429023
aI401184
aI5219026
aI4280104
aI4839210
aI2322781
aI984370
aI4417326
aI59184
aI2221873
aI2094901
aI3817224
aI18231
aI1607481
aI5498683
aI2500412
aI4226877
aI4880190
aI4062517
aI2740162
aI200516
aI2519206
aI5043810
aI2463561
aI5261130
aI3407691
aI847692
aI780109
aI5521230
aI4623603
aI2967381
aI8022
aI284029
aI2157363
aI924930
aI193167
aI3026781
aI599902
aI1981413
aI1914721
aI4036923
aI4881843
aI429192
aI410940
aI4792170
aI2981997
aI4671342
aI2750319
aI872304
aI614376
aI5080024
aI2367351
aI500824
aI1990521
aI843642
aI2934651
aI5407233
aI3991422
aI2961045
aI4198273
aI2101065
aI1148803
aI3518341
aI972678
aI4716423
aI474883
aI501642
aI3299211
aI4106124
aI2044501
aI720783
aI4716432
aI706449
aI4852035
aI6543
aI415638
aI1600281
aI2051992
aI1504051
aI512636
aI4600951
aI2051996
aI2819997
aI5023647
aI2564001
aI2678721
aI645027
aI4102052
aI952230
aI95217
aI1970089
aI5210026
aI724371
aI2580397
aI5419231
aI629406
aI5525431
aI4180980
aI5042106
aI3428283
aI4190278
aI602046
aI4432509
aI1781697
aI5470146
aI2854851
aI5103468
aI22471
aI3856219
aI4696009
aI5034063
aI4227019
aI4994305
aI5451726
aI1460203
aI3844049
aI4171734
aI2950137
aI458712
aI89982
aI616410
aI4349916
aI352221
aI4341726
aI892581
aI3692512
aI2957281
aI2050018
aI62118
aI5209425
aI602088
aI2610855
aI3104082
aI2331645
aI4052661
aI1368403
aI301044
aI2340853
aI734101
aI4109400
aI726033
aI4463881
aI2648061
aI763902
aI2270163
a.