(lp0
I34816
aI5637
aI224269
aI74259
aI21
aI251926
aI2991
aI208413
aI6174
aI180261
aI20518
aI250412
aI8541
aI85041
aI348219
aI63
aI259136
aI75841
aI21058
aI7236
aI87109
aI45126
aI6822
aI251984
aI35683
aI192087
aI205916
aI94813
aI210526
aI63072
aI302181
aI56937
aI68202
aI25196
aI5229
aI71280
aI277621
aI191607
aI29817
aI59002
aI82026
aI166017
aI320643
aI194181
aI50824
aI20617
aI261259
aI284301
aI193167
aI257168
aI167569
aI69271
aI215708
aI275103
aI51363
aI186021
aI62118
aI74922
aI310446
aI89268
aI73926
aI175821
aI281805
aI43218
aI228051
aI211065
aI181465
aI53967
aI17631
aI46818
aI152301
aI248104
aI5367
aI256761
aI7422
aI2817
aI344169
aI2518
aI67335
aI250126
aI44305
aI245012
aI8982
aI116503
aI49435
aI212101
aI291
aI78120
aI289071
aI59184
aI140083
aI18231
aI162619
aI340285
aI25918
aI243007
aI176569
aI65163
aI200516
aI205126
aI20301
aI259918
aI312658
aI4435
aI250196
aI18261
aI8022
aI157021
aI67045
aI176481
aI84283
aI182401
aI310635
aI45421
aI326516
aI326518
aI284029
aI89982
aI78210
aI281997
aI6543
aI256401
aI22851
aI51606
aI308124
aI201123
aI217508
aI54693
aI281517
aI179631
aI285109
aI176931
aI114109
aI52164
aI22471
aI119221
aI259018
aI199627
aI201679
aI6102
aI293001
aI86965
aI160731
aI352221
aI27615
aI321702
aI60903
aI95217
aI98802
aI301044
aI502
aI90282
aI94206
a.